; Function Attrs: mustprogress nounwind uwtable
define dso_local { i64, ptr } @_ZNK4node4quic10TLSContext4alpnEv(ptr nocapture noundef nonnull readonly align 8 dereferenceable(352) %this) local_unnamed_addr #4 align 2 {
entry:
  %alpn_buf = alloca ptr, align 8
  %alpnlen = alloca i32, align 4
  store ptr null, ptr %alpn_buf, align 8
  %ssl_ = getelementptr inbounds i8, ptr %this, i64 328
  %0 = load ptr, ptr %ssl_, align 8
  call void @SSL_get0_alpn_selected(ptr noundef %0, ptr noundef nonnull %alpn_buf, ptr noundef nonnull %alpnlen) #18
  %1 = load i32, ptr %alpnlen, align 4
  %tobool.not = icmp eq i32 %1, 0
  %2 = load ptr, ptr %alpn_buf, align 8
  %conv = zext i32 %1 to i64
  %retval.sroa.3.0 = select i1 %tobool.not, ptr null, ptr %2
  %.fca.0.insert = insertvalue { i64, ptr } poison, i64 %conv, 0
  %.fca.1.insert = insertvalue { i64, ptr } %.fca.0.insert, ptr %retval.sroa.3.0, 1
  ret { i64, ptr } %.fca.1.insert
}